target datalayout = "e-m:e-p270:32:32-p271:32:32-p272:64:64-i64:64-i128:128-f80:128-n8:16:32:64-S128"
target triple = "x86_64-pc-linux-gnu"

%"class.llvm::StringRef" = type { ptr, i64 }
%"class.clang::ento::CheckerNameRef" = type { %"class.llvm::StringRef" }
%"class.clang::ento::CheckerBase" = type { %"class.clang::ProgramPointTag", %"class.clang::ento::CheckerNameRef" }
%"class.clang::ProgramPointTag" = type { ptr, ptr }

; Function Attrs: mustprogress nounwind uwtable
define dso_local { ptr, i64 } @_ZNK5clang4ento11CheckerBase14getCheckerNameEv(ptr noundef nonnull align 8 dereferenceable(32) %0) #0 align 2 {
  %2 = alloca %"class.clang::ento::CheckerNameRef", align 8
  %3 = alloca ptr, align 8
  store ptr %0, ptr %3, align 8
  %4 = load ptr, ptr %3, align 8
  %5 = getelementptr inbounds nuw %"class.clang::ento::CheckerBase", ptr %4, i32 0, i32 1
  call void @llvm.memcpy.p0.p0.i64(ptr align 8 %2, ptr align 8 %5, i64 16, i1 false)
  %6 = getelementptr inbounds nuw %"class.clang::ento::CheckerNameRef", ptr %2, i32 0, i32 0
  %7 = load { ptr, i64 }, ptr %6, align 8
  ret { ptr, i64 } %7
}